Certificate:
    Data:
        Version: 3 (0x2)
        Serial Number:
            02:01:31:02:1f:b7:01:44:01:02
        Signature Algorithm: sha1WithRSAEncryption (1.2.840.113549.1.1.5)
        Issuer: C=RU, L=Moscow, O=JSC Russian Standard Bank, OU=RSB Certificate Authority, T=Head of RSB CA, CN=RSA CA Certificate - Test2 - SHA1, Email=sib@rsb.ru
        Validity
            Not Before: Apr 28 13:54:56 2021 GMT
            Not After : Apr 28 13:54:56 2023 GMT
        Subject: C=RU, SP=MULT, L=Moscow, O=Test BRS DE.UTP.PO, OU=9900000000, CN=10.30.77.12, Email=deotpgkr@rsb.ru
        Subject Public Key Info:
            Public Key Algorithm: rsaEncryption (1.2.840.113549.1.1.1)
            RSA Public Key: (2048 bit)
                Modulus: (2048 bits)
                    00:cd:00:41:49:ef:9a:e3:c6:e4:49:ed:fe:8a:11:
                    42:c5:3b:82:73:0f:86:f0:c0:e2:6b:4e:89:85:50:
                    85:d6:98:9c:90:f8:3d:ef:62:2d:04:28:f4:21:4b:
                    b3:68:e6:dc:a1:8d:98:78:e6:65:22:71:b7:55:c5:
                    2c:ad:2e:72:2b:a3:40:28:8c:ff:d7:5c:04:2c:dc:
                    c4:b9:b1:e8:01:de:89:2d:ca:81:e8:71:4a:89:ed:
                    6a:98:12:04:a1:14:aa:d5:af:62:46:71:3b:ec:2b:
                    28:33:84:37:49:2d:c7:7e:39:dd:60:e5:a2:b3:b6:
                    69:be:74:94:35:be:89:2a:eb:95:00:20:29:0b:d1:
                    d1:3d:d9:3b:85:11:4f:81:98:36:15:08:bc:c4:47:
                    1f:d4:36:05:52:2f:31:0d:e9:e5:c7:f4:68:cc:3c:
                    85:30:9e:72:47:41:d9:85:93:89:f3:62:8d:3a:f1:
                    c2:22:8b:52:da:05:2d:0f:1e:9c:6b:9d:ba:63:e7:
                    35:c1:e0:d7:39:73:e5:34:26:f0:a8:71:43:3d:86:
                    99:29:5e:f2:73:33:ef:a1:2b:fe:aa:00:8e:84:f0:
                    23:60:b8:52:89:85:d4:27:40:f0:aa:f4:01:9a:df:
                    a0:2f:e4:15:2e:da:ba:1a:d3:06:3b:ed:82:fd:7a:
                    3c:a3
                Exponent: (17 bits)
                    01:00:01
        X509v3 extensions:
            Basic Constraints: 
                CA:TRUE
            Subject Key Identifier: 
                2d:5d:bf:57:b0:3f:83:66:64:8c:b0:ef:12:c0:81:98:8d:ca:f4:3a
            Authority Key Identifier: 
                keyid:4e:4f:ce:b4:2b:00:d2:8f:69:4d:e4:30:b3:52:d8:d9:4d:c8:26:cc
                DirName:C=RU, L=Moscow, O=JSC Russian Standard Bank, OU=RSB Certificate Authority, T=Head of RSB CA, CN=RSA CA Certificate - Test2 - SHA1, Email=sib@rsb.ru
                serial:02:01:31:01:01:01:44:01:01

            Key Usage: 
                Digital Signature, Non Repudiation
    Signature Algorithm: sha1WithRSAEncryption (1.2.840.113549.1.1.5)
        1b:6d:04:a0:5f:4a:e3:a1:b5:35:47:7e:13:ab:ab:dd:fb:bb:
        65:eb:87:f7:28:34:ea:ed:20:4d:eb:ae:e6:9d:90:46:69:71:
        95:24:6b:95:cf:e1:57:57:f1:a3:77:43:66:7a:15:f7:81:4c:
        88:1a:39:22:78:bb:97:f9:48:c8:ed:b8:09:b9:25:4b:61:7e:
        7f:a8:e8:32:85:97:5d:67:7b:06:e5:37:c1:dc:9f:30:82:3a:
        e3:ce:0f:07:dd:6f:d1:d4:6a:68:29:d7:68:a5:ea:0e:7e:24:
        6c:fe:e0:97:d4:72:b2:00:9a:11:c7:7e:ee:7a:92:05:d4:60:
        97:5e:e1:64:39:78:c4:91:3c:aa:65:72:60:cd:30:b8:98:68:
        b6:b9:30:8b:68:45:74:e6:9e:ea:9d:6d:8b:72:6f:42:73:02:
        1b:09:51:bf:1c:67:48:d8:90:2b:ce:52:42:6d:db:75:53:4a:
        1f:bb:35:98:17:e4:8b:7d:61:a5:d4:73:39:27:b1:9c:36:4c:
        ff:3e:53:f0:ae:42:7b:06:f9:9b:9a:ad:3b:6c:46:f4:77:23:
        0b:d8:fc:58:ff:a9:e2:96:8f:ae:6a:8e:c4:e5:2b:1d:85:e2:
        0d:a6:63:45:ea:f2:7c:74:00:13:cc:54:67:f3:0c:f7:69:7f:
        66:1e:52:14
-----BEGIN CERTIFICATE-----
MIIGITCCBQmgAwIBAgIKAgExAh+3AUQBAjANBgkqhkiG9w0BAQUFADCCAS0xCzAJ
BgNVBAYTAlJVMRUwEwYDVQQHHgwATQBvAHMAYwBvAHcxOzA5BgNVBAoeMgBKAFMA
QwAgAFIAdQBzAHMAaQBhAG4AIABTAHQAYQBuAGQAYQByAGQAIABCAGEAbgBrMTsw
OQYDVQQLHjIAUgBTAEIAIABDAGUAcgB0AGkAZgBpAGMAYQB0AGUAIABBAHUAdABo
AG8AcgBpAHQAeTElMCMGA1UEDB4cAEgAZQBhAGQAIABvAGYAIABSAFMAQgAgAEMA
QTFLMEkGA1UEAx5CAFIAUwBBACAAQwBBACAAQwBlAHIAdABpAGYAaQBjAGEAdABl
ACAALQAgAFQAZQBzAHQAMgAgAC0AIABTAEgAQQAxMRkwFwYJKoZIhvcNAQkBFgpz
aWJAcnNiLnJ1MB4XDTIxMDQyODEzNTQ1NloXDTIzMDQyODEzNTQ1NlowgcIxCzAJ
BgNVBAYTAlJVMREwDwYDVQQIHggATQBVAEwAVDEVMBMGA1UEBx4MAE0AbwBzAGMA
bwB3MS0wKwYDVQQKHiQAVABlAHMAdAAgAEIAUgBTACAARABFAC4AVQBUAFAALgBQ
AE8xHTAbBgNVBAseFAA5ADkAMAAwADAAMAAwADAAMAAwMRswGQYDVQQDHhIARABF
AC4AVQBUAFAALgBQAE8xHjAcBgkqhkiG9w0BCQEWD2Rlb3RwZ2tyQHJzYi5ydTCC
ASIwDQYJKoZIhvcNAQEBBQADggEPADCCAQoCggEBAM0AQUnvmuPG5Ent/ooRQsU7
gnMPhvDA4mtOiYVQhdaYnJD4Pe9iLQQo9CFLs2jm3KGNmHjmZSJxt1XFLK0uciuj
QCiM/9dcBCzcxLmx6AHeiS3KgehxSontapgSBKEUqtWvYkZxO+wrKDOEN0ktx345
3WDlorO2ab50lDW+iSrrlQAgKQvR0T3ZO4URT4GYNhUIvMRHH9Q2BVIvMQ3p5cf0
aMw8hTCeckdB2YWTifNijTrxwiKLUtoFLQ8enGudumPnNcHg1zlz5TQm8KhxQz2G
mSle8nMz76Er/qoAjoTwI2C4UomF1CdA8Kr0AZrfoC/kFS7auhrTBjvtgv16PKMC
AwEAAaOCAakwggGlMAwGA1UdEwQFMAMBAf8wHQYDVR0OBBYEFC1dv1ewP4NmZIyw
7xLAgZiNyvQ6MIIBZwYDVR0jBIIBXjCCAVqAFE5PzrQrANKPaU3kMLNS2NlNyCbM
oYIBNaSCATEwggEtMQswCQYDVQQGEwJSVTEVMBMGA1UEBx4MAE0AbwBzAGMAbwB3
MTswOQYDVQQKHjIASgBTAEMAIABSAHUAcwBzAGkAYQBuACAAUwB0AGEAbgBkAGEA
cgBkACAAQgBhAG4AazE7MDkGA1UECx4yAFIAUwBCACAAQwBlAHIAdABpAGYAaQBj
AGEAdABlACAAQQB1AHQAaABvAHIAaQB0AHkxJTAjBgNVBAweHABIAGUAYQBkACAA
bwBmACAAUgBTAEIAIABDAEExSzBJBgNVBAMeQgBSAFMAQQAgAEMAQQAgAEMAZQBy
AHQAaQBmAGkAYwBhAHQAZQAgAC0AIABUAGUAcwB0ADIAIAAtACAAUwBIAEEAMTEZ
MBcGCSqGSIb3DQEJARYKc2liQHJzYi5ydYIJAgExAQEBRAEBMAsGA1UdDwQEAwIG
wDANBgkqhkiG9w0BAQUFAAOCAQEAG20EoF9K46G1NUd+E6ur3fu7ZeuH9yg06u0g
Teuu5p2QRmlxlSRrlc/hV1fxo3dDZnoV94FMiBo5Ini7l/lIyO24CbklS2F+f6jo
MoWXXWd7BuU3wdyfMII6484PB91v0dRqaCnXaKXqDn4kbP7gl9RysgCaEcd+7nqS
BdRgl17hZDl4xJE8qmVyYM0wuJhotrkwi2hFdOae6p1ti3JvQnMCGwlRvxxnSNiQ
K85SQm3bdVNKH7s1mBfki31hpdRzOSexnDZM/z5T8K5Cewb5m5qtO2xG9HcjC9j8
WP+p4paPrmqOxOUrHYXiDaZjReryfHQAE8xUZ/MM92l/Zh5SFA==
-----END CERTIFICATE-----
