Certificate:
    Data:
        Version: 3 (0x2)
        Serial Number:
            02:01:31:01:01:01:44:01:01
        Signature Algorithm: sha1WithRSAEncryption (1.2.840.113549.1.1.5)
        Issuer: C=RU, L=Moscow, O=JSC Russian Standard Bank, OU=RSB Certificate Authority, T=Head of RSB CA, CN=RSA CA Certificate - Test2 - SHA1, Email=sib@rsb.ru
        Validity
            Not Before: Apr 28 13:20:57 2021 GMT
            Not After : Mar 24 13:20:57 2043 GMT
        Subject: C=RU, L=Moscow, O=JSC Russian Standard Bank, OU=RSB Certificate Authority, T=Head of RSB CA, CN=RSA CA Certificate - Test2 - SHA1, Email=sib@rsb.ru
        Subject Public Key Info:
            Public Key Algorithm: rsaEncryption (1.2.840.113549.1.1.1)
            RSA Public Key: (2048 bit)
                Modulus: (2048 bits)
                    00:e2:a5:d3:3f:3b:94:6e:52:ea:2b:a9:75:a3:85:
                    b9:4b:39:a1:f5:10:85:73:54:5c:38:85:35:c8:48:
                    6b:77:12:1b:e2:9a:c0:2d:d8:66:b3:11:8b:88:b4:
                    45:e8:58:c3:a4:a3:1e:3b:03:bf:ed:ab:6d:57:b8:
                    11:12:fd:ba:e7:64:04:d3:78:b8:5b:8c:0c:3b:42:
                    b9:42:80:e5:72:f3:bb:ee:3d:94:c8:a9:5f:a1:c9:
                    8a:18:d4:5a:7a:04:6e:cb:e1:3c:8d:cd:f3:a0:05:
                    80:e1:b6:04:51:a8:23:eb:7b:6c:0c:f0:d7:f9:7b:
                    61:f9:21:30:ef:1f:ff:6a:1a:c4:9e:90:2f:93:48:
                    4f:0a:5d:8a:0c:0b:12:95:d3:34:90:20:3b:b9:91:
                    93:88:e8:79:12:c4:a0:5e:6c:7b:5f:5b:ae:b8:92:
                    40:6c:b1:78:4b:95:ae:3d:8a:6a:51:21:05:ba:54:
                    65:0e:7b:dc:a8:f2:ad:6b:1f:7c:73:aa:03:d5:08:
                    25:bb:2a:02:5c:a3:fc:c4:78:4d:b3:5a:49:05:29:
                    96:6b:1e:7f:37:96:80:7a:fc:65:df:ca:6f:cf:da:
                    2b:e2:bb:bd:33:0d:5c:1c:fa:3a:88:c4:2f:82:49:
                    5e:1e:a2:40:38:5c:96:b5:3e:4d:43:fd:73:ab:5a:
                    4c:3f
                Exponent: (17 bits)
                    01:00:01
        X509v3 extensions:
            Basic Constraints: critical
                CA:TRUE, pathlen:10
            Subject Key Identifier: 
                4e:4f:ce:b4:2b:00:d2:8f:69:4d:e4:30:b3:52:d8:d9:4d:c8:26:cc
            Authority Key Identifier: 
                keyid:4e:4f:ce:b4:2b:00:d2:8f:69:4d:e4:30:b3:52:d8:d9:4d:c8:26:cc
                DirName:C=RU, L=Moscow, O=JSC Russian Standard Bank, OU=RSB Certificate Authority, T=Head of RSB CA, CN=RSA CA Certificate - Test2 - SHA1, Email=sib@rsb.ru
                serial:02:01:31:01:01:01:44:01:01

            Key Usage: critical
                Digital Signature, Non Repudiation, Key Encipherment, Data Encipherment, Key Agreement, Certificate Sign, CRL Sign
    Signature Algorithm: sha1WithRSAEncryption (1.2.840.113549.1.1.5)
        d7:b7:1f:7a:3d:3f:50:aa:5d:c3:c9:42:92:df:db:22:f2:39:
        26:8e:2c:67:9e:78:10:f3:5f:72:f4:b8:57:f6:90:23:1b:38:
        ba:58:ae:11:8c:3c:21:5b:d4:61:6b:f6:c8:64:77:e9:eb:ec:
        30:31:58:b4:72:7e:b1:29:b0:da:87:90:17:87:3c:d7:37:d2:
        dc:3c:e0:66:2b:50:86:f0:0b:5d:c8:92:d6:d6:af:ac:24:0b:
        ef:81:d4:fc:5e:16:93:de:51:b0:7f:3f:f8:fa:91:18:0d:cc:
        5b:38:6d:6c:32:77:8b:22:f2:eb:f8:31:ee:30:c6:48:4a:e6:
        f4:b9:19:cd:f0:97:7f:f6:f5:b0:45:49:3c:fe:69:fd:0e:b1:
        15:46:87:c5:d8:82:40:dd:38:eb:f3:64:54:04:83:bd:1d:3d:
        81:9a:36:88:ed:49:5a:4e:10:10:8f:4d:25:7a:c7:5c:c7:7c:
        84:90:94:c0:b4:42:2a:a8:66:7c:b1:89:dd:39:0b:58:52:a3:
        8a:e1:d0:46:fa:a8:b4:62:21:e8:c7:42:d7:77:6c:2c:91:3f:
        9c:51:05:ba:73:0c:4b:82:59:20:2d:be:bd:95:48:54:93:1c:
        4b:4b:31:b8:56:75:4d:ef:03:e8:f5:2b:11:85:ba:73:6b:4a:
        ca:42:ef:3f
-----BEGIN CERTIFICATE-----
MIIGlTCCBX2gAwIBAgIJAgExAQEBRAEBMA0GCSqGSIb3DQEBBQUAMIIBLTELMAkG
A1UEBhMCUlUxFTATBgNVBAceDABNAG8AcwBjAG8AdzE7MDkGA1UECh4yAEoAUwBD
ACAAUgB1AHMAcwBpAGEAbgAgAFMAdABhAG4AZABhAHIAZAAgAEIAYQBuAGsxOzA5
BgNVBAseMgBSAFMAQgAgAEMAZQByAHQAaQBmAGkAYwBhAHQAZQAgAEEAdQB0AGgA
bwByAGkAdAB5MSUwIwYDVQQMHhwASABlAGEAZAAgAG8AZgAgAFIAUwBCACAAQwBB
MUswSQYDVQQDHkIAUgBTAEEAIABDAEEAIABDAGUAcgB0AGkAZgBpAGMAYQB0AGUA
IAAtACAAVABlAHMAdAAyACAALQAgAFMASABBADExGTAXBgkqhkiG9w0BCQEWCnNp
YkByc2IucnUwHhcNMjEwNDI4MTMyMDU3WhcNNDMwMzI0MTMyMDU3WjCCAS0xCzAJ
BgNVBAYTAlJVMRUwEwYDVQQHHgwATQBvAHMAYwBvAHcxOzA5BgNVBAoeMgBKAFMA
QwAgAFIAdQBzAHMAaQBhAG4AIABTAHQAYQBuAGQAYQByAGQAIABCAGEAbgBrMTsw
OQYDVQQLHjIAUgBTAEIAIABDAGUAcgB0AGkAZgBpAGMAYQB0AGUAIABBAHUAdABo
AG8AcgBpAHQAeTElMCMGA1UEDB4cAEgAZQBhAGQAIABvAGYAIABSAFMAQgAgAEMA
QTFLMEkGA1UEAx5CAFIAUwBBACAAQwBBACAAQwBlAHIAdABpAGYAaQBjAGEAdABl
ACAALQAgAFQAZQBzAHQAMgAgAC0AIABTAEgAQQAxMRkwFwYJKoZIhvcNAQkBFgpz
aWJAcnNiLnJ1MIIBIjANBgkqhkiG9w0BAQEFAAOCAQ8AMIIBCgKCAQEA4qXTPzuU
blLqK6l1o4W5Szmh9RCFc1RcOIU1yEhrdxIb4prALdhmsxGLiLRF6FjDpKMeOwO/
7attV7gREv2652QE03i4W4wMO0K5QoDlcvO77j2UyKlfocmKGNRaegRuy+E8jc3z
oAWA4bYEUagj63tsDPDX+Xth+SEw7x//ahrEnpAvk0hPCl2KDAsSldM0kCA7uZGT
iOh5EsSgXmx7X1uuuJJAbLF4S5WuPYpqUSEFulRlDnvcqPKtax98c6oD1QgluyoC
XKP8xHhNs1pJBSmWax5/N5aAevxl38pvz9or4ru9Mw1cHPo6iMQvgkleHqJAOFyW
tT5NQ/1zq1pMPwIDAQABo4IBsjCCAa4wEgYDVR0TAQH/BAgwBgEB/wIBCjAdBgNV
HQ4EFgQUTk/OtCsA0o9pTeQws1LY2U3IJswwggFnBgNVHSMEggFeMIIBWoAUTk/O
tCsA0o9pTeQws1LY2U3IJsyhggE1pIIBMTCCAS0xCzAJBgNVBAYTAlJVMRUwEwYD
VQQHHgwATQBvAHMAYwBvAHcxOzA5BgNVBAoeMgBKAFMAQwAgAFIAdQBzAHMAaQBh
AG4AIABTAHQAYQBuAGQAYQByAGQAIABCAGEAbgBrMTswOQYDVQQLHjIAUgBTAEIA
IABDAGUAcgB0AGkAZgBpAGMAYQB0AGUAIABBAHUAdABoAG8AcgBpAHQAeTElMCMG
A1UEDB4cAEgAZQBhAGQAIABvAGYAIABSAFMAQgAgAEMAQTFLMEkGA1UEAx5CAFIA
UwBBACAAQwBBACAAQwBlAHIAdABpAGYAaQBjAGEAdABlACAALQAgAFQAZQBzAHQA
MgAgAC0AIABTAEgAQQAxMRkwFwYJKoZIhvcNAQkBFgpzaWJAcnNiLnJ1ggkCATEB
AQFEAQEwDgYDVR0PAQH/BAQDAgH+MA0GCSqGSIb3DQEBBQUAA4IBAQDXtx96PT9Q
ql3DyUKS39si8jkmjixnnngQ819y9LhX9pAjGzi6WK4RjDwhW9Rha/bIZHfp6+ww
MVi0cn6xKbDah5AXhzzXN9LcPOBmK1CG8AtdyJLW1q+sJAvvgdT8XhaT3lGwfz/4
+pEYDcxbOG1sMneLIvLr+DHuMMZISub0uRnN8Jd/9vWwRUk8/mn9DrEVRofF2IJA
3Tjr82RUBIO9HT2BmjaI7UlaThAQj00lesdcx3yEkJTAtEIqqGZ8sYndOQtYUqOK
4dBG+qi0YiHox0LXd2wskT+cUQW6cwxLglkgLb69lUhUkxxLSzG4VnVN7wPo9SsR
hbpza0rKQu8/
-----END CERTIFICATE-----
